target datalayout = "e-m:e-p270:32:32-p271:32:32-p272:64:64-i64:64-i128:128-f80:128-n8:16:32:64-S128"
target triple = "x86_64-pc-linux-gnu"

%struct.InvalMessageArray = type { ptr, i32 }
%struct.RelFileLocator = type { i32, i32, i32 }
%struct.SharedInvalRelcacheMsg = type { i8, i32, i32 }
%struct.SharedInvalSmgrMsg = type { i8, i8, i16, %struct.RelFileLocator }
%struct.InvalidationInfo = type { %struct.InvalidationMsgsGroup, i8 }
%struct.InvalidationMsgsGroup = type { [2 x i32], [2 x i32] }
%union.SharedInvalidationMessage = type { %struct.SharedInvalSmgrMsg }

@InvalMessageArrays = internal global [2 x %struct.InvalMessageArray] zeroinitializer, align 16
@TopTransactionContext = external global ptr, align 8

; Function Attrs: nounwind uwtable
define internal void @AddInvalidationMessage(ptr noundef %0, i32 noundef %1, ptr noundef %2) #0 {
  %4 = alloca ptr, align 8
  %5 = alloca i32, align 4
  %6 = alloca ptr, align 8
  %7 = alloca ptr, align 8
  %8 = alloca i32, align 4
  %9 = alloca i32, align 4
  %10 = alloca i32, align 4
  store ptr %0, ptr %4, align 8
  store i32 %1, ptr %5, align 4
  store ptr %2, ptr %6, align 8
  call void @llvm.lifetime.start.p0(i64 8, ptr %7) #7
  %11 = load i32, ptr %5, align 4
  %12 = sext i32 %11 to i64
  %13 = getelementptr inbounds [2 x %struct.InvalMessageArray], ptr @InvalMessageArrays, i64 0, i64 %12
  store ptr %13, ptr %7, align 8
  call void @llvm.lifetime.start.p0(i64 4, ptr %8) #7
  %14 = load ptr, ptr %4, align 8
  %15 = getelementptr inbounds nuw %struct.InvalidationMsgsGroup, ptr %14, i32 0, i32 1
  %16 = load i32, ptr %5, align 4
  %17 = sext i32 %16 to i64
  %18 = getelementptr inbounds [2 x i32], ptr %15, i64 0, i64 %17
  %19 = load i32, ptr %18, align 4
  store i32 %19, ptr %8, align 4
  %20 = load i32, ptr %8, align 4
  %21 = load ptr, ptr %7, align 8
  %22 = getelementptr inbounds nuw %struct.InvalMessageArray, ptr %21, i32 0, i32 1
  %23 = load i32, ptr %22, align 8
  %24 = icmp sge i32 %20, %23
  br i1 %24, label %25, label %59

25:                                               ; preds = %3
  %26 = load ptr, ptr %7, align 8
  %27 = getelementptr inbounds nuw %struct.InvalMessageArray, ptr %26, i32 0, i32 0
  %28 = load ptr, ptr %27, align 8
  %29 = icmp eq ptr %28, null
  br i1 %29, label %30, label %41

30:                                               ; preds = %25
  call void @llvm.lifetime.start.p0(i64 4, ptr %9) #7
  store i32 32, ptr %9, align 4
  %31 = load ptr, ptr @TopTransactionContext, align 8
  %32 = load i32, ptr %9, align 4
  %33 = sext i32 %32 to i64
  %34 = mul i64 %33, 16
  %35 = call ptr @MemoryContextAlloc(ptr noundef %31, i64 noundef %34)
  %36 = load ptr, ptr %7, align 8
  %37 = getelementptr inbounds nuw %struct.InvalMessageArray, ptr %36, i32 0, i32 0
  store ptr %35, ptr %37, align 8
  %38 = load i32, ptr %9, align 4
  %39 = load ptr, ptr %7, align 8
  %40 = getelementptr inbounds nuw %struct.InvalMessageArray, ptr %39, i32 0, i32 1
  store i32 %38, ptr %40, align 8
  call void @llvm.lifetime.end.p0(i64 4, ptr %9) #7
  br label %58

41:                                               ; preds = %25
  call void @llvm.lifetime.start.p0(i64 4, ptr %10) #7
  %42 = load ptr, ptr %7, align 8
  %43 = getelementptr inbounds nuw %struct.InvalMessageArray, ptr %42, i32 0, i32 1
  %44 = load i32, ptr %43, align 8
  %45 = mul i32 2, %44
  store i32 %45, ptr %10, align 4
  %46 = load ptr, ptr %7, align 8
  %47 = getelementptr inbounds nuw %struct.InvalMessageArray, ptr %46, i32 0, i32 0
  %48 = load ptr, ptr %47, align 8
  %49 = load i32, ptr %10, align 4
  %50 = sext i32 %49 to i64
  %51 = mul i64 %50, 16
  %52 = call ptr @repalloc(ptr noundef %48, i64 noundef %51)
  %53 = load ptr, ptr %7, align 8
  %54 = getelementptr inbounds nuw %struct.InvalMessageArray, ptr %53, i32 0, i32 0
  store ptr %52, ptr %54, align 8
  %55 = load i32, ptr %10, align 4
  %56 = load ptr, ptr %7, align 8
  %57 = getelementptr inbounds nuw %struct.InvalMessageArray, ptr %56, i32 0, i32 1
  store i32 %55, ptr %57, align 8
  call void @llvm.lifetime.end.p0(i64 4, ptr %10) #7
  br label %58

58:                                               ; preds = %41, %30
  br label %59

59:                                               ; preds = %58, %3
  %60 = load ptr, ptr %7, align 8
  %61 = getelementptr inbounds nuw %struct.InvalMessageArray, ptr %60, i32 0, i32 0
  %62 = load ptr, ptr %61, align 8
  %63 = load i32, ptr %8, align 4
  %64 = sext i32 %63 to i64
  %65 = getelementptr inbounds %union.SharedInvalidationMessage, ptr %62, i64 %64
  %66 = load ptr, ptr %6, align 8
  call void @llvm.memcpy.p0.p0.i64(ptr align 4 %65, ptr align 4 %66, i64 16, i1 false)
  %67 = load ptr, ptr %4, align 8
  %68 = getelementptr inbounds nuw %struct.InvalidationMsgsGroup, ptr %67, i32 0, i32 1
  %69 = load i32, ptr %5, align 4
  %70 = sext i32 %69 to i64
  %71 = getelementptr inbounds [2 x i32], ptr %68, i64 0, i64 %70
  %72 = load i32, ptr %71, align 4
  %73 = add i32 %72, 1
  store i32 %73, ptr %71, align 4
  call void @llvm.lifetime.end.p0(i64 4, ptr %8) #7
  call void @llvm.lifetime.end.p0(i64 8, ptr %7) #7
  ret void
}

; Function Attrs: nounwind uwtable
define internal void @AddRelcacheInvalidationMessage(ptr noundef %0, i32 noundef %1, i32 noundef %2) #0 {
  %4 = alloca ptr, align 8
  %5 = alloca i32, align 4
  %6 = alloca i32, align 4
  %7 = alloca %union.SharedInvalidationMessage, align 4
  %8 = alloca i32, align 4
  %9 = alloca i32, align 4
  %10 = alloca ptr, align 8
  %11 = alloca i32, align 4
  store ptr %0, ptr %4, align 8
  store i32 %1, ptr %5, align 4
  store i32 %2, ptr %6, align 4
  call void @llvm.lifetime.start.p0(i64 16, ptr %7) #7
  br label %12

12:                                               ; preds = %3
  call void @llvm.lifetime.start.p0(i64 4, ptr %8) #7
  %13 = load ptr, ptr %4, align 8
  %14 = getelementptr inbounds nuw %struct.InvalidationMsgsGroup, ptr %13, i32 0, i32 0
  %15 = getelementptr inbounds [2 x i32], ptr %14, i64 0, i64 1
  %16 = load i32, ptr %15, align 4
  store i32 %16, ptr %8, align 4
  call void @llvm.lifetime.start.p0(i64 4, ptr %9) #7
  %17 = load ptr, ptr %4, align 8
  %18 = getelementptr inbounds nuw %struct.InvalidationMsgsGroup, ptr %17, i32 0, i32 1
  %19 = getelementptr inbounds [2 x i32], ptr %18, i64 0, i64 1
  %20 = load i32, ptr %19, align 4
  store i32 %20, ptr %9, align 4
  br label %21

21:                                               ; preds = %51, %12
  %22 = load i32, ptr %8, align 4
  %23 = load i32, ptr %9, align 4
  %24 = icmp slt i32 %22, %23
  br i1 %24, label %25, label %54

25:                                               ; preds = %21
  call void @llvm.lifetime.start.p0(i64 8, ptr %10) #7
  %26 = load ptr, ptr getelementptr inbounds ([2 x %struct.InvalMessageArray], ptr @InvalMessageArrays, i64 0, i64 1), align 16
  %27 = load i32, ptr %8, align 4
  %28 = sext i32 %27 to i64
  %29 = getelementptr inbounds %union.SharedInvalidationMessage, ptr %26, i64 %28
  store ptr %29, ptr %10, align 8
  %30 = load ptr, ptr %10, align 8
  %31 = getelementptr inbounds nuw %struct.SharedInvalRelcacheMsg, ptr %30, i32 0, i32 0
  %32 = load i8, ptr %31, align 4
  %33 = sext i8 %32 to i32
  %34 = icmp eq i32 %33, -2
  br i1 %34, label %35, label %47

35:                                               ; preds = %25
  %36 = load ptr, ptr %10, align 8
  %37 = getelementptr inbounds nuw %struct.SharedInvalRelcacheMsg, ptr %36, i32 0, i32 2
  %38 = load i32, ptr %37, align 4
  %39 = load i32, ptr %6, align 4
  %40 = icmp eq i32 %38, %39
  br i1 %40, label %46, label %41

41:                                               ; preds = %35
  %42 = load ptr, ptr %10, align 8
  %43 = getelementptr inbounds nuw %struct.SharedInvalRelcacheMsg, ptr %42, i32 0, i32 2
  %44 = load i32, ptr %43, align 4
  %45 = icmp eq i32 %44, 0
  br i1 %45, label %46, label %47

46:                                               ; preds = %41, %35
  store i32 1, ptr %11, align 4
  br label %48

47:                                               ; preds = %41, %25
  store i32 0, ptr %11, align 4
  br label %48

48:                                               ; preds = %47, %46
  call void @llvm.lifetime.end.p0(i64 8, ptr %10) #7
  %49 = load i32, ptr %11, align 4
  switch i32 %49, label %55 [
    i32 0, label %50
  ]

50:                                               ; preds = %48
  br label %51

51:                                               ; preds = %50
  %52 = load i32, ptr %8, align 4
  %53 = add i32 %52, 1
  store i32 %53, ptr %8, align 4
  br label %21, !llvm.loop !15

54:                                               ; preds = %21
  store i32 0, ptr %11, align 4
  br label %55

55:                                               ; preds = %54, %48
  call void @llvm.lifetime.end.p0(i64 4, ptr %9) #7
  call void @llvm.lifetime.end.p0(i64 4, ptr %8) #7
  %56 = load i32, ptr %11, align 4
  switch i32 %56, label %69 [
    i32 0, label %57
  ]

57:                                               ; preds = %55
  br label %58

58:                                               ; preds = %57
  br label %59

59:                                               ; preds = %58
  %60 = getelementptr inbounds nuw %struct.SharedInvalRelcacheMsg, ptr %7, i32 0, i32 0
  store i8 -2, ptr %60, align 4
  %61 = load i32, ptr %5, align 4
  %62 = getelementptr inbounds nuw %struct.SharedInvalRelcacheMsg, ptr %7, i32 0, i32 1
  store i32 %61, ptr %62, align 4
  %63 = load i32, ptr %6, align 4
  %64 = getelementptr inbounds nuw %struct.SharedInvalRelcacheMsg, ptr %7, i32 0, i32 2
  store i32 %63, ptr %64, align 4
  br label %65

65:                                               ; preds = %59
  br label %66

66:                                               ; preds = %65
  br label %67

67:                                               ; preds = %66
  %68 = load ptr, ptr %4, align 8
  call void @AddInvalidationMessage(ptr noundef %68, i32 noundef 1, ptr noundef %7)
  store i32 0, ptr %11, align 4
  br label %69

69:                                               ; preds = %67, %55
  call void @llvm.lifetime.end.p0(i64 16, ptr %7) #7
  %70 = load i32, ptr %11, align 4
  switch i32 %70, label %72 [
    i32 0, label %71
    i32 1, label %71
  ]

71:                                               ; preds = %69, %69
  ret void

72:                                               ; preds = %69
  unreachable
}

; Function Attrs: nounwind uwtable
define internal void @RegisterRelcacheInvalidation(ptr noundef %0, i32 noundef %1, i32 noundef %2) #0 {
  %4 = alloca ptr, align 8
  %5 = alloca i32, align 4
  %6 = alloca i32, align 4
  store ptr %0, ptr %4, align 8
  store i32 %1, ptr %5, align 4
  store i32 %2, ptr %6, align 4
  %7 = load ptr, ptr %4, align 8
  %8 = getelementptr inbounds nuw %struct.InvalidationInfo, ptr %7, i32 0, i32 0
  %9 = load i32, ptr %5, align 4
  %10 = load i32, ptr %6, align 4
  call void @AddRelcacheInvalidationMessage(ptr noundef %8, i32 noundef %9, i32 noundef %10)
  %11 = call i32 @GetCurrentCommandId(i1 noundef zeroext true)
  %12 = load i32, ptr %6, align 4
  %13 = icmp eq i32 %12, 0
  br i1 %13, label %17, label %14

14:                                               ; preds = %3
  %15 = load i32, ptr %6, align 4
  %16 = call zeroext i1 @RelationIdIsInInitFile(i32 noundef %15)
  br i1 %16, label %17, label %20

17:                                               ; preds = %14, %3
  %18 = load ptr, ptr %4, align 8
  %19 = getelementptr inbounds nuw %struct.InvalidationInfo, ptr %18, i32 0, i32 1
  store i8 1, ptr %19, align 4
  br label %20

20:                                               ; preds = %17, %14
  ret void
}