; Function Attrs: nounwind uwtable
define internal fastcc void @RegisterRelcacheInvalidation(ptr noundef captures(none) %0, i32 noundef %1, i32 noundef %2) unnamed_addr #0 {
  %.sroa.4.i = alloca [3 x i8], align 1
  call void @llvm.lifetime.start.p0(i64 3, ptr nonnull %.sroa.4.i)
  %4 = getelementptr inbounds nuw i8, ptr %0, i64 4
  %5 = load i32, ptr %4, align 4
  %6 = getelementptr inbounds nuw i8, ptr %0, i64 12
  %7 = load i32, ptr %6, align 4
  %.not20.i = icmp slt i32 %5, %7
  %8 = load ptr, ptr @InvalMessageArrays.2, align 16
  br i1 %.not20.i, label %.lr.ph.i, label %.critedge18.i

.lr.ph.i:                                         ; preds = %3
  %9 = sext i32 %5 to i64
  br label %10

10:                                               ; preds = %.critedge.i, %.lr.ph.i
  %indvars.iv.i = phi i64 [ %9, %.lr.ph.i ], [ %indvars.iv.next.i, %.critedge.i ]
  %11 = getelementptr inbounds %union.SharedInvalidationMessage, ptr %8, i64 %indvars.iv.i
  %12 = load i8, ptr %11, align 4
  %13 = icmp eq i8 %12, -2
  br i1 %13, label %14, label %.critedge.i

14:                                               ; preds = %10
  %15 = getelementptr inbounds nuw i8, ptr %11, i64 8
  %16 = load i32, ptr %15, align 4
  %17 = icmp eq i32 %16, %2
  %18 = icmp eq i32 %16, 0
  %or.cond.i = or i1 %17, %18
  br i1 %or.cond.i, label %AddRelcacheInvalidationMessage.exit, label %.critedge.i

.critedge.i:                                      ; preds = %14, %10
  %indvars.iv.next.i = add nsw i64 %indvars.iv.i, 1
  %lftr.wideiv.i = trunc i64 %indvars.iv.next.i to i32
  %exitcond.not.i = icmp eq i32 %7, %lftr.wideiv.i
  br i1 %exitcond.not.i, label %.critedge18.i, label %10, !llvm.loop !15

.critedge18.i:                                    ; preds = %.critedge.i, %3
  %19 = load i32, ptr @InvalMessageArrays.3, align 8
  %.not.i.i = icmp slt i32 %7, %19
  br i1 %.not.i.i, label %AddInvalidationMessage.exit.i, label %20

20:                                               ; preds = %.critedge18.i
  %21 = icmp eq ptr %8, null
  br i1 %21, label %22, label %25

22:                                               ; preds = %20
  %23 = load ptr, ptr @TopTransactionContext, align 8
  %24 = tail call ptr @MemoryContextAlloc(ptr noundef %23, i64 noundef 512) #7
  br label %.sink.split.i.i

25:                                               ; preds = %20
  %26 = shl i32 %19, 1
  %27 = sext i32 %26 to i64
  %28 = shl nsw i64 %27, 4
  %29 = tail call ptr @repalloc(ptr noundef nonnull %8, i64 noundef %28) #7
  br label %.sink.split.i.i

.sink.split.i.i:                                  ; preds = %25, %22
  %.sink21.i.i = phi ptr [ %24, %22 ], [ %29, %25 ]
  %.sink.i.i = phi i32 [ 32, %22 ], [ %26, %25 ]
  store ptr %.sink21.i.i, ptr @InvalMessageArrays.2, align 16
  store i32 %.sink.i.i, ptr @InvalMessageArrays.3, align 8
  br label %AddInvalidationMessage.exit.i

AddInvalidationMessage.exit.i:                    ; preds = %.sink.split.i.i, %.critedge18.i
  %30 = phi ptr [ %8, %.critedge18.i ], [ %.sink21.i.i, %.sink.split.i.i ]
  %31 = sext i32 %7 to i64
  %32 = getelementptr inbounds %union.SharedInvalidationMessage, ptr %30, i64 %31
  store i8 -2, ptr %32, align 4
  %.sroa.4.0..sroa_idx.i = getelementptr inbounds nuw i8, ptr %32, i64 1
  call void @llvm.memcpy.p0.p0.i64(ptr noundef nonnull align 1 dereferenceable(3) %.sroa.4.0..sroa_idx.i, ptr noundef nonnull align 1 dereferenceable(3) %.sroa.4.i, i64 3, i1 false)
  %.sroa.419.0..sroa_idx.i = getelementptr inbounds nuw i8, ptr %32, i64 4
  store i32 %1, ptr %.sroa.419.0..sroa_idx.i, align 4
  %.sroa.5.0..sroa_idx.i = getelementptr inbounds nuw i8, ptr %32, i64 8
  store i32 %2, ptr %.sroa.5.0..sroa_idx.i, align 4
  %33 = load i32, ptr %6, align 4
  %34 = add i32 %33, 1
  store i32 %34, ptr %6, align 4
  br label %AddRelcacheInvalidationMessage.exit

AddRelcacheInvalidationMessage.exit:              ; preds = %14, %AddInvalidationMessage.exit.i
  call void @llvm.lifetime.end.p0(i64 3, ptr nonnull %.sroa.4.i)
  %35 = tail call i32 @GetCurrentCommandId(i1 noundef zeroext true) #7
  %36 = icmp eq i32 %2, 0
  br i1 %36, label %39, label %37

37:                                               ; preds = %AddRelcacheInvalidationMessage.exit
  %38 = tail call zeroext i1 @RelationIdIsInInitFile(i32 noundef %2) #7
  br i1 %38, label %39, label %41

39:                                               ; preds = %37, %AddRelcacheInvalidationMessage.exit
  %40 = getelementptr inbounds nuw i8, ptr %0, i64 16
  store i8 1, ptr %40, align 4
  br label %41

41:                                               ; preds = %39, %37
  ret void
}